target datalayout = "e-m:e-p270:32:32-p271:32:32-p272:64:64-i64:64-i128:128-f80:128-n8:16:32:64-S128"
target triple = "x86_64-pc-linux-gnu"

%struct.GCRef = type { i64 }
%struct.jit_State = type { %struct.GCtrace, ptr, ptr, ptr, ptr, ptr, ptr, i32, i32, i32, i8, i8, %struct.IRType1, i8, %struct.FoldState, ptr, i32, i32, i32, i32, i32, i32, i32, [1 x i32], [5 x %union.TValue], [3 x %union.TValue], ptr, i32, i32, i32, i32, ptr, ptr, i32, i32, i8, ptr, i32, i32, i16, [101 x i16], [258 x i32], [15 x i32], [16 x ptr], [64 x %struct.HotPenalty], i32, [16 x %struct.BPropEntry], i32, %struct.ScEvEntry, ptr, i32, i32, i32, ptr, i32, i32, ptr, ptr, ptr, i64, i64, %union.TValue, ptr, i32, i32 }
%struct.GCtrace = type { %struct.GCRef, i8, i8, i16, i32, i32, %struct.GCRef, ptr, i32, i32, ptr, ptr, %struct.GCRef, %struct.MRef, i32, i32, ptr, i32, i16, i16, i16, i16, i16, i16, i16, i8, i8, i8, i8 }
%struct.MRef = type { i64 }
%struct.IRType1 = type { i8 }
%struct.FoldState = type { %union.IRIns, [2 x %union.IRIns], [2 x %union.IRIns] }
%union.IRIns = type { %struct.GCRef }
%struct.HotPenalty = type { %struct.MRef, i16, i16 }
%struct.BPropEntry = type { i16, i16, i32 }
%struct.ScEvEntry = type { %struct.MRef, i16, i16, i16, i16, %struct.IRType1, i8 }
%union.TValue = type { i64 }
%struct.anon.2 = type { i16, i16, i16, i16 }
%struct.RecordFFData = type { ptr, i64, i32 }
%struct.RecordIndex = type { %union.TValue, %union.TValue, %union.TValue, %union.TValue, ptr, ptr, i32, i32, i32, i32, i32, i32 }

@.str = private unnamed_addr constant [23 x i8] c"copy of dead GC object\00", align 1

; Function Attrs: alwaysinline nounwind uwtable
define internal void @checklivetv(ptr noundef %0, ptr noundef %1, ptr noundef %2) #1 {
  %4 = alloca ptr, align 8
  %5 = alloca ptr, align 8
  %6 = alloca ptr, align 8
  store ptr %0, ptr %4, align 8, !tbaa !87
  store ptr %1, ptr %5, align 8, !tbaa !11
  store ptr %2, ptr %6, align 8, !tbaa !92
  ret void
}

; Function Attrs: alwaysinline nounwind uwtable
define internal void @copyTV(ptr noundef %0, ptr noundef %1, ptr noundef %2) #1 {
  %4 = alloca ptr, align 8
  %5 = alloca ptr, align 8
  %6 = alloca ptr, align 8
  store ptr %0, ptr %4, align 8, !tbaa !87
  store ptr %1, ptr %5, align 8, !tbaa !11
  store ptr %2, ptr %6, align 8, !tbaa !11
  %7 = load ptr, ptr %5, align 8, !tbaa !11
  %8 = load ptr, ptr %6, align 8, !tbaa !11
  call void @llvm.memcpy.p0.p0.i64(ptr align 8 %7, ptr align 8 %8, i64 8, i1 false), !tbaa.struct !91
  %9 = load ptr, ptr %4, align 8, !tbaa !87
  %10 = load ptr, ptr %5, align 8, !tbaa !11
  call void @checklivetv(ptr noundef %9, ptr noundef %10, ptr noundef @.str)
  ret void
}

; Function Attrs: alwaysinline nounwind uwtable
define internal void @lj_ir_set_(ptr noundef %0, i16 noundef zeroext %1, i16 noundef zeroext %2, i16 noundef zeroext %3) #1 {
  %5 = alloca ptr, align 8
  %6 = alloca i16, align 2
  %7 = alloca i16, align 2
  %8 = alloca i16, align 2
  store ptr %0, ptr %5, align 8, !tbaa !4
  store i16 %1, ptr %6, align 2, !tbaa !14
  store i16 %2, ptr %7, align 2, !tbaa !14
  store i16 %3, ptr %8, align 2, !tbaa !14
  %9 = load i16, ptr %6, align 2, !tbaa !14
  %10 = load ptr, ptr %5, align 8, !tbaa !4
  %11 = getelementptr inbounds nuw %struct.jit_State, ptr %10, i32 0, i32 14
  %12 = getelementptr inbounds nuw %struct.FoldState, ptr %11, i32 0, i32 0
  %13 = getelementptr inbounds nuw %struct.anon.2, ptr %12, i32 0, i32 2
  store i16 %9, ptr %13, align 4, !tbaa !13
  %14 = load i16, ptr %7, align 2, !tbaa !14
  %15 = load ptr, ptr %5, align 8, !tbaa !4
  %16 = getelementptr inbounds nuw %struct.jit_State, ptr %15, i32 0, i32 14
  %17 = getelementptr inbounds nuw %struct.FoldState, ptr %16, i32 0, i32 0
  %18 = getelementptr inbounds nuw %struct.anon.2, ptr %17, i32 0, i32 0
  store i16 %14, ptr %18, align 8, !tbaa !13
  %19 = load i16, ptr %8, align 2, !tbaa !14
  %20 = load ptr, ptr %5, align 8, !tbaa !4
  %21 = getelementptr inbounds nuw %struct.jit_State, ptr %20, i32 0, i32 14
  %22 = getelementptr inbounds nuw %struct.FoldState, ptr %21, i32 0, i32 0
  %23 = getelementptr inbounds nuw %struct.anon.2, ptr %22, i32 0, i32 1
  store i16 %19, ptr %23, align 2, !tbaa !13
  ret void
}

; Function Attrs: nounwind uwtable
define internal i32 @recff_metacall(ptr noundef %0, ptr noundef %1, i32 noundef %2) #0 {
  %4 = alloca i32, align 4
  %5 = alloca ptr, align 8
  %6 = alloca ptr, align 8
  %7 = alloca i32, align 4
  %8 = alloca %struct.RecordIndex, align 8
  %9 = alloca i32, align 4
  %10 = alloca %union.TValue, align 8
  %11 = alloca i32, align 4
  store ptr %0, ptr %5, align 8, !tbaa !4
  store ptr %1, ptr %6, align 8, !tbaa !46
  store i32 %2, ptr %7, align 4, !tbaa !9
  call void @llvm.lifetime.start.p0(i64 72, ptr %8) #9
  %12 = load ptr, ptr %5, align 8, !tbaa !4
  %13 = getelementptr inbounds nuw %struct.jit_State, ptr %12, i32 0, i32 6
  %14 = load ptr, ptr %13, align 8, !tbaa !41
  %15 = getelementptr inbounds i32, ptr %14, i64 0
  %16 = load i32, ptr %15, align 4, !tbaa !9
  %17 = getelementptr inbounds nuw %struct.RecordIndex, ptr %8, i32 0, i32 6
  store i32 %16, ptr %17, align 8, !tbaa !50
  %18 = load ptr, ptr %5, align 8, !tbaa !4
  %19 = getelementptr inbounds nuw %struct.jit_State, ptr %18, i32 0, i32 2
  %20 = load ptr, ptr %19, align 8, !tbaa !37
  %21 = getelementptr inbounds nuw %struct.RecordIndex, ptr %8, i32 0, i32 0
  %22 = load ptr, ptr %6, align 8, !tbaa !46
  %23 = getelementptr inbounds nuw %struct.RecordFFData, ptr %22, i32 0, i32 0
  %24 = load ptr, ptr %23, align 8, !tbaa !40
  %25 = getelementptr inbounds %union.TValue, ptr %24, i64 0
  call void @copyTV(ptr noundef %20, ptr noundef %21, ptr noundef %25)
  %26 = load ptr, ptr %5, align 8, !tbaa !4
  %27 = load i32, ptr %7, align 4, !tbaa !9
  %28 = call i32 @lj_record_mm_lookup(ptr noundef %26, ptr noundef %8, i32 noundef %27)
  %29 = icmp ne i32 %28, 0
  br i1 %29, label %30, label %94

30:                                               ; preds = %3
  call void @llvm.lifetime.start.p0(i64 4, ptr %9) #9
  call void @llvm.lifetime.start.p0(i64 8, ptr %10) #9
  %31 = load ptr, ptr %5, align 8, !tbaa !4
  %32 = getelementptr inbounds nuw %struct.jit_State, ptr %31, i32 0, i32 6
  %33 = load ptr, ptr %32, align 8, !tbaa !41
  %34 = getelementptr inbounds i32, ptr %33, i64 0
  %35 = load i32, ptr %34, align 4, !tbaa !9
  %36 = load ptr, ptr %5, align 8, !tbaa !4
  %37 = getelementptr inbounds nuw %struct.jit_State, ptr %36, i32 0, i32 6
  %38 = load ptr, ptr %37, align 8, !tbaa !41
  %39 = getelementptr inbounds i32, ptr %38, i64 2
  store i32 %35, ptr %39, align 4, !tbaa !9
  %40 = getelementptr inbounds nuw %struct.RecordIndex, ptr %8, i32 0, i32 10
  %41 = load i32, ptr %40, align 8, !tbaa !55
  %42 = load ptr, ptr %5, align 8, !tbaa !4
  %43 = getelementptr inbounds nuw %struct.jit_State, ptr %42, i32 0, i32 6
  %44 = load ptr, ptr %43, align 8, !tbaa !41
  %45 = getelementptr inbounds i32, ptr %44, i64 0
  store i32 %41, ptr %45, align 4, !tbaa !9
  %46 = load ptr, ptr %5, align 8, !tbaa !4
  %47 = getelementptr inbounds nuw %struct.jit_State, ptr %46, i32 0, i32 2
  %48 = load ptr, ptr %47, align 8, !tbaa !37
  %49 = load ptr, ptr %6, align 8, !tbaa !46
  %50 = getelementptr inbounds nuw %struct.RecordFFData, ptr %49, i32 0, i32 0
  %51 = load ptr, ptr %50, align 8, !tbaa !40
  %52 = getelementptr inbounds %union.TValue, ptr %51, i64 0
  call void @copyTV(ptr noundef %48, ptr noundef %10, ptr noundef %52)
  %53 = load ptr, ptr %5, align 8, !tbaa !4
  %54 = getelementptr inbounds nuw %struct.jit_State, ptr %53, i32 0, i32 2
  %55 = load ptr, ptr %54, align 8, !tbaa !37
  %56 = load ptr, ptr %6, align 8, !tbaa !46
  %57 = getelementptr inbounds nuw %struct.RecordFFData, ptr %56, i32 0, i32 0
  %58 = load ptr, ptr %57, align 8, !tbaa !40
  %59 = getelementptr inbounds %union.TValue, ptr %58, i64 2
  %60 = load ptr, ptr %6, align 8, !tbaa !46
  %61 = getelementptr inbounds nuw %struct.RecordFFData, ptr %60, i32 0, i32 0
  %62 = load ptr, ptr %61, align 8, !tbaa !40
  %63 = getelementptr inbounds %union.TValue, ptr %62, i64 0
  call void @copyTV(ptr noundef %55, ptr noundef %59, ptr noundef %63)
  %64 = load ptr, ptr %5, align 8, !tbaa !4
  %65 = getelementptr inbounds nuw %struct.jit_State, ptr %64, i32 0, i32 2
  %66 = load ptr, ptr %65, align 8, !tbaa !37
  %67 = load ptr, ptr %6, align 8, !tbaa !46
  %68 = getelementptr inbounds nuw %struct.RecordFFData, ptr %67, i32 0, i32 0
  %69 = load ptr, ptr %68, align 8, !tbaa !40
  %70 = getelementptr inbounds %union.TValue, ptr %69, i64 0
  %71 = getelementptr inbounds nuw %struct.RecordIndex, ptr %8, i32 0, i32 3
  call void @copyTV(ptr noundef %66, ptr noundef %70, ptr noundef %71)
  %72 = load ptr, ptr %5, align 8, !tbaa !4
  %73 = getelementptr inbounds nuw %struct.jit_State, ptr %72, i32 0, i32 2
  %74 = load ptr, ptr %73, align 8, !tbaa !37
  %75 = load ptr, ptr %5, align 8, !tbaa !4
  %76 = call i32 @lj_vm_cpcall(ptr noundef %74, ptr noundef null, ptr noundef %75, ptr noundef @recff_metacall_cp)
  store i32 %76, ptr %9, align 4, !tbaa !9
  %77 = load ptr, ptr %5, align 8, !tbaa !4
  %78 = getelementptr inbounds nuw %struct.jit_State, ptr %77, i32 0, i32 2
  %79 = load ptr, ptr %78, align 8, !tbaa !37
  %80 = load ptr, ptr %6, align 8, !tbaa !46
  %81 = getelementptr inbounds nuw %struct.RecordFFData, ptr %80, i32 0, i32 0
  %82 = load ptr, ptr %81, align 8, !tbaa !40
  %83 = getelementptr inbounds %union.TValue, ptr %82, i64 0
  call void @copyTV(ptr noundef %79, ptr noundef %83, ptr noundef %10)
  %84 = load i32, ptr %9, align 4, !tbaa !9
  %85 = icmp ne i32 %84, 0
  br i1 %85, label %86, label %91

86:                                               ; preds = %30
  %87 = load ptr, ptr %5, align 8, !tbaa !4
  %88 = getelementptr inbounds nuw %struct.jit_State, ptr %87, i32 0, i32 2
  %89 = load ptr, ptr %88, align 8, !tbaa !37
  %90 = load i32, ptr %9, align 4, !tbaa !9
  call void @lj_err_throw(ptr noundef %89, i32 noundef %90) #10
  unreachable

91:                                               ; preds = %30
  %92 = load ptr, ptr %6, align 8, !tbaa !46
  %93 = getelementptr inbounds nuw %struct.RecordFFData, ptr %92, i32 0, i32 1
  store i64 -1, ptr %93, align 8, !tbaa !36
  store i32 1, ptr %4, align 4
  store i32 1, ptr %11, align 4
  call void @llvm.lifetime.end.p0(i64 8, ptr %10) #9
  call void @llvm.lifetime.end.p0(i64 4, ptr %9) #9
  br label %95

94:                                               ; preds = %3
  store i32 0, ptr %4, align 4
  store i32 1, ptr %11, align 4
  br label %95

95:                                               ; preds = %94, %91
  call void @llvm.lifetime.end.p0(i64 72, ptr %8) #9
  %96 = load i32, ptr %4, align 4
  ret i32 %96
}

; Function Attrs: nounwind uwtable
define internal void @recff_tostring(ptr noundef %0, ptr noundef %1) #0 {
  %3 = alloca ptr, align 8
  %4 = alloca ptr, align 8
  %5 = alloca i32, align 4
  %6 = alloca i32, align 4
  store ptr %0, ptr %3, align 8, !tbaa !4
  store ptr %1, ptr %4, align 8, !tbaa !46
  call void @llvm.lifetime.start.p0(i64 4, ptr %5) #9
  %7 = load ptr, ptr %3, align 8, !tbaa !4
  %8 = getelementptr inbounds nuw %struct.jit_State, ptr %7, i32 0, i32 6
  %9 = load ptr, ptr %8, align 8, !tbaa !41
  %10 = getelementptr inbounds i32, ptr %9, i64 0
  %11 = load i32, ptr %10, align 4, !tbaa !9
  store i32 %11, ptr %5, align 4, !tbaa !9
  %12 = load i32, ptr %5, align 4, !tbaa !9
  %13 = and i32 %12, 520093696
  %14 = icmp eq i32 %13, 67108864
  br i1 %14, label %15, label %16

15:                                               ; preds = %2
  br label %72

16:                                               ; preds = %2
  %17 = load i32, ptr %5, align 4, !tbaa !9
  %18 = icmp ne i32 %17, 0
  br i1 %18, label %19, label %71

19:                                               ; preds = %16
  %20 = load ptr, ptr %3, align 8, !tbaa !4
  %21 = load ptr, ptr %4, align 8, !tbaa !46
  %22 = call i32 @recff_metacall(ptr noundef %20, ptr noundef %21, i32 noundef 18)
  %23 = icmp ne i32 %22, 0
  br i1 %23, label %71, label %24

24:                                               ; preds = %19
  %25 = load i32, ptr %5, align 4, !tbaa !9
  %26 = lshr i32 %25, 24
  %27 = and i32 %26, 31
  %28 = sub i32 %27, 14
  %29 = icmp ule i32 %28, 5
  br i1 %29, label %30, label %45

30:                                               ; preds = %24
  %31 = load ptr, ptr %3, align 8, !tbaa !4
  %32 = load i32, ptr %5, align 4, !tbaa !9
  %33 = trunc i32 %32 to i16
  %34 = load i32, ptr %5, align 4, !tbaa !9
  %35 = and i32 %34, 520093696
  %36 = icmp eq i32 %35, 234881024
  %37 = select i1 %36, i32 1, i32 0
  %38 = trunc i32 %37 to i16
  call void @lj_ir_set_(ptr noundef %31, i16 noundef zeroext 23812, i16 noundef zeroext %33, i16 noundef zeroext %38)
  %39 = load ptr, ptr %3, align 8, !tbaa !4
  %40 = call i32 @lj_opt_fold(ptr noundef %39)
  %41 = load ptr, ptr %3, align 8, !tbaa !4
  %42 = getelementptr inbounds nuw %struct.jit_State, ptr %41, i32 0, i32 6
  %43 = load ptr, ptr %42, align 8, !tbaa !41
  %44 = getelementptr inbounds i32, ptr %43, i64 0
  store i32 %40, ptr %44, align 4, !tbaa !9
  br label %70

45:                                               ; preds = %24
  %46 = load i32, ptr %5, align 4, !tbaa !9
  %47 = lshr i32 %46, 24
  %48 = and i32 %47, 31
  %49 = sub i32 %48, 0
  %50 = icmp ule i32 %49, 2
  br i1 %50, label %51, label %66

51:                                               ; preds = %45
  %52 = load ptr, ptr %3, align 8, !tbaa !4
  %53 = load ptr, ptr %3, align 8, !tbaa !4
  %54 = getelementptr inbounds nuw %struct.jit_State, ptr %53, i32 0, i32 2
  %55 = load ptr, ptr %54, align 8, !tbaa !37
  %56 = load ptr, ptr %4, align 8, !tbaa !46
  %57 = getelementptr inbounds nuw %struct.RecordFFData, ptr %56, i32 0, i32 0
  %58 = load ptr, ptr %57, align 8, !tbaa !40
  %59 = getelementptr inbounds %union.TValue, ptr %58, i64 0
  %60 = call ptr @lj_strfmt_obj(ptr noundef %55, ptr noundef %59)
  %61 = call i32 @lj_ir_kgc(ptr noundef %52, ptr noundef %60, i32 noundef 4)
  %62 = load ptr, ptr %3, align 8, !tbaa !4
  %63 = getelementptr inbounds nuw %struct.jit_State, ptr %62, i32 0, i32 6
  %64 = load ptr, ptr %63, align 8, !tbaa !41
  %65 = getelementptr inbounds i32, ptr %64, i64 0
  store i32 %61, ptr %65, align 4, !tbaa !9
  br label %69

66:                                               ; preds = %45
  %67 = load ptr, ptr %3, align 8, !tbaa !4
  %68 = load ptr, ptr %4, align 8, !tbaa !46
  call void @recff_nyi(ptr noundef %67, ptr noundef %68)
  store i32 1, ptr %6, align 4
  br label %73

69:                                               ; preds = %51
  br label %70

70:                                               ; preds = %69, %30
  br label %71

71:                                               ; preds = %70, %19, %16
  br label %72

72:                                               ; preds = %71, %15
  store i32 0, ptr %6, align 4
  br label %73

73:                                               ; preds = %72, %66
  call void @llvm.lifetime.end.p0(i64 4, ptr %5) #9
  %74 = load i32, ptr %6, align 4
  switch i32 %74, label %76 [
    i32 0, label %75
    i32 1, label %75
  ]

75:                                               ; preds = %73, %73
  ret void

76:                                               ; preds = %73
  unreachable
}