; Function Attrs: nounwind uwtable
define internal void @recff_tostring(ptr noundef %0, ptr noundef captures(none) %1) #0 {
  %3 = alloca %struct.RecordIndex, align 8
  %4 = getelementptr inbounds nuw i8, ptr %0, i64 160
  %5 = load ptr, ptr %4, align 8, !tbaa !37
  %6 = load i32, ptr %5, align 4, !tbaa !39
  %7 = and i32 %6, 520093696
  %8 = icmp ne i32 %7, 67108864
  %9 = icmp ne i32 %6, 0
  %or.cond = and i1 %9, %8
  br i1 %or.cond, label %10, label %57

10:                                               ; preds = %2
  call void @llvm.lifetime.start.p0(i64 72, ptr nonnull %3) #9
  %11 = getelementptr inbounds nuw i8, ptr %3, i64 48
  store i32 %6, ptr %11, align 8, !tbaa !47
  %12 = getelementptr inbounds nuw i8, ptr %0, i64 128
  %13 = load ptr, ptr %1, align 8, !tbaa !36
  %14 = load i64, ptr %13, align 8, !tbaa !4
  store i64 %14, ptr %3, align 8, !tbaa !4
  %15 = call i32 @lj_record_mm_lookup(ptr noundef nonnull %0, ptr noundef nonnull %3, i32 noundef 18) #9
  %.not.i = icmp eq i32 %15, 0
  br i1 %.not.i, label %34, label %16

16:                                               ; preds = %10
  %17 = load ptr, ptr %4, align 8, !tbaa !37
  %18 = load i32, ptr %17, align 4, !tbaa !39
  %19 = getelementptr inbounds nuw i8, ptr %17, i64 8
  store i32 %18, ptr %19, align 4, !tbaa !39
  %20 = getelementptr inbounds nuw i8, ptr %3, i64 64
  %21 = load i32, ptr %20, align 8, !tbaa !52
  store i32 %21, ptr %17, align 4, !tbaa !39
  %22 = load ptr, ptr %1, align 8, !tbaa !36
  %23 = load i64, ptr %22, align 8, !tbaa !4
  %24 = getelementptr inbounds nuw i8, ptr %22, i64 16
  store i64 %23, ptr %24, align 8, !tbaa !4
  %25 = load ptr, ptr %1, align 8, !tbaa !36
  %26 = getelementptr inbounds nuw i8, ptr %3, i64 24
  %27 = load i64, ptr %26, align 8, !tbaa !4
  store i64 %27, ptr %25, align 8, !tbaa !4
  %28 = load ptr, ptr %12, align 8, !tbaa !33
  %29 = call i32 @lj_vm_cpcall(ptr noundef %28, ptr noundef null, ptr noundef nonnull %0, ptr noundef nonnull @recff_metacall_cp) #9
  %30 = load ptr, ptr %1, align 8, !tbaa !36
  store i64 %23, ptr %30, align 8, !tbaa !4
  %.not24.i = icmp eq i32 %29, 0
  br i1 %.not24.i, label %recff_metacall.exit, label %31

31:                                               ; preds = %16
  %32 = load ptr, ptr %12, align 8, !tbaa !33
  call void @lj_err_throw(ptr noundef %32, i32 noundef %29) #10
  unreachable

recff_metacall.exit:                              ; preds = %16
  %33 = getelementptr inbounds nuw i8, ptr %1, i64 8
  store i64 -1, ptr %33, align 8, !tbaa !32
  call void @llvm.lifetime.end.p0(i64 72, ptr nonnull %3) #9
  br label %57

34:                                               ; preds = %10
  call void @llvm.lifetime.end.p0(i64 72, ptr nonnull %3) #9
  %35 = lshr i32 %6, 24
  %36 = and i32 %35, 31
  %37 = add nsw i32 %36, -14
  %38 = icmp ult i32 %37, 6
  br i1 %38, label %39, label %48

39:                                               ; preds = %34
  %40 = trunc i32 %6 to i16
  %41 = icmp eq i32 %7, 234881024
  %42 = zext i1 %41 to i16
  %43 = getelementptr inbounds nuw i8, ptr %0, i64 184
  %44 = getelementptr inbounds nuw i8, ptr %0, i64 188
  store i16 23812, ptr %44, align 4, !tbaa !4
  store i16 %40, ptr %43, align 8, !tbaa !4
  %45 = getelementptr inbounds nuw i8, ptr %0, i64 186
  store i16 %42, ptr %45, align 2, !tbaa !4
  %46 = call i32 @lj_opt_fold(ptr noundef nonnull %0) #9
  %47 = load ptr, ptr %4, align 8, !tbaa !37
  store i32 %46, ptr %47, align 4, !tbaa !39
  br label %57

48:                                               ; preds = %34
  %49 = icmp samesign ult i32 %36, 3
  br i1 %49, label %50, label %56

50:                                               ; preds = %48
  %51 = load ptr, ptr %12, align 8, !tbaa !33
  %52 = load ptr, ptr %1, align 8, !tbaa !36
  %53 = call ptr @lj_strfmt_obj(ptr noundef %51, ptr noundef %52) #9
  %54 = call i32 @lj_ir_kgc(ptr noundef nonnull %0, ptr noundef %53, i32 noundef 4) #9
  %55 = load ptr, ptr %4, align 8, !tbaa !37
  store i32 %54, ptr %55, align 4, !tbaa !39
  br label %57

56:                                               ; preds = %48
  call void @recff_nyi(ptr noundef nonnull %0, ptr noundef nonnull %1)
  br label %57

57:                                               ; preds = %recff_metacall.exit, %2, %39, %50, %56
  ret void
}